
firmware.elf:     file format elf32-littleriscv


Disassembly of section .text:

00000000 <start>:
   0:	00000093          	addi	ra,zero,0
   4:	00000113          	addi	sp,zero,0
   8:	00000193          	addi	gp,zero,0
   c:	00000213          	addi	tp,zero,0
  10:	00000293          	addi	t0,zero,0
  14:	00000313          	addi	t1,zero,0
  18:	00000393          	addi	t2,zero,0
  1c:	00000413          	addi	s0,zero,0
  20:	00000493          	addi	s1,zero,0
  24:	00000513          	addi	a0,zero,0
  28:	00000593          	addi	a1,zero,0
  2c:	00000613          	addi	a2,zero,0
  30:	00000693          	addi	a3,zero,0
  34:	00000713          	addi	a4,zero,0
  38:	00000793          	addi	a5,zero,0
  3c:	00000813          	addi	a6,zero,0
  40:	00000893          	addi	a7,zero,0
  44:	00000913          	addi	s2,zero,0
  48:	00000993          	addi	s3,zero,0
  4c:	00000a13          	addi	s4,zero,0
  50:	00000a93          	addi	s5,zero,0
  54:	00000b13          	addi	s6,zero,0
  58:	00000b93          	addi	s7,zero,0
  5c:	00000c13          	addi	s8,zero,0
  60:	00000c93          	addi	s9,zero,0
  64:	00000d13          	addi	s10,zero,0
  68:	00000d93          	addi	s11,zero,0
  6c:	00000e13          	addi	t3,zero,0
  70:	00000e93          	addi	t4,zero,0
  74:	00000f13          	addi	t5,zero,0
  78:	00000f93          	addi	t6,zero,0
  7c:	00001137          	lui	sp,0x1
  80:	1cc000ef          	jal	ra,24c <main>
  84:	0080006f          	jal	zero,8c <end>
  88:	00100073          	ebreak

0000008c <end>:
  8c:	0000006f          	jal	zero,8c <end>

00000090 <print_chr>:
  90:	800007b7          	lui	a5,0x80000
  94:	00a7a023          	sw	a0,0(a5) # 80000000 <buffer_string+0x7ffff7f8>
  98:	00008067          	jalr	zero,0(ra)

0000009c <print_str>:
  9c:	80000737          	lui	a4,0x80000
  a0:	00054783          	lbu	a5,0(a0)
  a4:	00079463          	bne	a5,zero,ac <print_str+0x10>
  a8:	00008067          	jalr	zero,0(ra)
  ac:	00150513          	addi	a0,a0,1
  b0:	00f72023          	sw	a5,0(a4) # 80000000 <buffer_string+0x7ffff7f8>
  b4:	fedff06f          	jal	zero,a0 <print_str+0x4>

000000b8 <print_hex>:
  b8:	04058263          	beq	a1,zero,fc <print_hex+0x44>
  bc:	00259593          	slli	a1,a1,0x2
  c0:	00001737          	lui	a4,0x1
  c4:	ffc58593          	addi	a1,a1,-4
  c8:	c1470713          	addi	a4,a4,-1004 # c14 <buffer_string+0x40c>
  cc:	800006b7          	lui	a3,0x80000
  d0:	0005d863          	bge	a1,zero,e0 <print_hex+0x28>
  d4:	00001537          	lui	a0,0x1
  d8:	c8450513          	addi	a0,a0,-892 # c84 <buffer_string+0x47c>
  dc:	fc1ff06f          	jal	zero,9c <print_str>
  e0:	00b557b3          	srl	a5,a0,a1
  e4:	00f7f793          	andi	a5,a5,15
  e8:	00f707b3          	add	a5,a4,a5
  ec:	0007c783          	lbu	a5,0(a5)
  f0:	ffc58593          	addi	a1,a1,-4
  f4:	00f6a023          	sw	a5,0(a3) # 80000000 <buffer_string+0x7ffff7f8>
  f8:	fd9ff06f          	jal	zero,d0 <print_hex+0x18>
  fc:	00008067          	jalr	zero,0(ra)

00000100 <mul>:
 100:	ff010113          	addi	sp,sp,-16 # ff0 <buffer_string+0x7e8>
 104:	00112623          	sw	ra,12(sp)
 108:	00055463          	bge	a0,zero,110 <mul+0x10>
 10c:	00000513          	addi	a0,zero,0
 110:	228000ef          	jal	ra,338 <__mulsi3>
 114:	00c12083          	lw	ra,12(sp)
 118:	01010113          	addi	sp,sp,16
 11c:	00008067          	jalr	zero,0(ra)

00000120 <Pow>:
 120:	ff010113          	addi	sp,sp,-16
 124:	00812423          	sw	s0,8(sp)
 128:	00912223          	sw	s1,4(sp)
 12c:	01212023          	sw	s2,0(sp)
 130:	00112623          	sw	ra,12(sp)
 134:	00050913          	addi	s2,a0,0
 138:	00058413          	addi	s0,a1,0
 13c:	00100513          	addi	a0,zero,1
 140:	00000493          	addi	s1,zero,0
 144:	0084ce63          	blt	s1,s0,160 <Pow+0x40>
 148:	00c12083          	lw	ra,12(sp)
 14c:	00812403          	lw	s0,8(sp)
 150:	00412483          	lw	s1,4(sp)
 154:	00012903          	lw	s2,0(sp)
 158:	01010113          	addi	sp,sp,16
 15c:	00008067          	jalr	zero,0(ra)
 160:	00055463          	bge	a0,zero,168 <Pow+0x48>
 164:	00000513          	addi	a0,zero,0
 168:	00090593          	addi	a1,s2,0
 16c:	1cc000ef          	jal	ra,338 <__mulsi3>
 170:	00148493          	addi	s1,s1,1
 174:	fd1ff06f          	jal	zero,144 <Pow+0x24>

00000178 <print_dec>:
 178:	fe010113          	addi	sp,sp,-32
 17c:	00812c23          	sw	s0,24(sp)
 180:	00912a23          	sw	s1,20(sp)
 184:	01212823          	sw	s2,16(sp)
 188:	01312623          	sw	s3,12(sp)
 18c:	01412423          	sw	s4,8(sp)
 190:	01512223          	sw	s5,4(sp)
 194:	00112e23          	sw	ra,28(sp)
 198:	00050913          	addi	s2,a0,0
 19c:	00050493          	addi	s1,a0,0
 1a0:	00050793          	addi	a5,a0,0
 1a4:	00a00413          	addi	s0,zero,10
 1a8:	00000a13          	addi	s4,zero,0
 1ac:	00900993          	addi	s3,zero,9
 1b0:	80000ab7          	lui	s5,0x80000
 1b4:	08f9e863          	bltu	s3,a5,244 <print_dec+0xcc>
 1b8:	01c12083          	lw	ra,28(sp)
 1bc:	01812403          	lw	s0,24(sp)
 1c0:	03048493          	addi	s1,s1,48
 1c4:	0ff4f493          	andi	s1,s1,255
 1c8:	800007b7          	lui	a5,0x80000
 1cc:	0097a023          	sw	s1,0(a5) # 80000000 <buffer_string+0x7ffff7f8>
 1d0:	01012903          	lw	s2,16(sp)
 1d4:	01412483          	lw	s1,20(sp)
 1d8:	00c12983          	lw	s3,12(sp)
 1dc:	00812a03          	lw	s4,8(sp)
 1e0:	00412a83          	lw	s5,4(sp)
 1e4:	02010113          	addi	sp,sp,32
 1e8:	00008067          	jalr	zero,0(ra)
 1ec:	00f9f863          	bgeu	s3,a5,1fc <print_dec+0x84>
 1f0:	00158593          	addi	a1,a1,1
 1f4:	00000413          	addi	s0,zero,0
 1f8:	04f9e063          	bltu	s3,a5,238 <print_dec+0xc0>
 1fc:	00078493          	addi	s1,a5,0
 200:	00040793          	addi	a5,s0,0
 204:	fe89e4e3          	bltu	s3,s0,1ec <print_dec+0x74>
 208:	03040793          	addi	a5,s0,48
 20c:	0ff7f793          	andi	a5,a5,255
 210:	00faa023          	sw	a5,0(s5) # 80000000 <buffer_string+0x7ffff7f8>
 214:	00a00513          	addi	a0,zero,10
 218:	f09ff0ef          	jal	ra,120 <Pow>
 21c:	00050593          	addi	a1,a0,0
 220:	00040513          	addi	a0,s0,0
 224:	114000ef          	jal	ra,338 <__mulsi3>
 228:	00aa0a33          	add	s4,s4,a0
 22c:	00050413          	addi	s0,a0,0
 230:	414907b3          	sub	a5,s2,s4
 234:	f81ff06f          	jal	zero,1b4 <print_dec+0x3c>
 238:	ff678793          	addi	a5,a5,-10
 23c:	00140413          	addi	s0,s0,1
 240:	fb9ff06f          	jal	zero,1f8 <print_dec+0x80>
 244:	00000593          	addi	a1,zero,0
 248:	fbdff06f          	jal	zero,204 <print_dec+0x8c>

0000024c <main>:
 24c:	00001537          	lui	a0,0x1
 250:	fe010113          	addi	sp,sp,-32
 254:	c2850513          	addi	a0,a0,-984 # c28 <buffer_string+0x420>
 258:	00112e23          	sw	ra,28(sp)
 25c:	00812c23          	sw	s0,24(sp)
 260:	00912a23          	sw	s1,20(sp)
 264:	01212823          	sw	s2,16(sp)
 268:	01312623          	sw	s3,12(sp)
 26c:	01412423          	sw	s4,8(sp)
 270:	000019b7          	lui	s3,0x1
 274:	e29ff0ef          	jal	ra,9c <print_str>
 278:	80898513          	addi	a0,s3,-2040 # 808 <buffer_string>
 27c:	e21ff0ef          	jal	ra,9c <print_str>
 280:	00001437          	lui	s0,0x1
 284:	c8440513          	addi	a0,s0,-892 # c84 <buffer_string+0x47c>
 288:	e15ff0ef          	jal	ra,9c <print_str>
 28c:	00001537          	lui	a0,0x1
 290:	c4850513          	addi	a0,a0,-952 # c48 <buffer_string+0x440>
 294:	e09ff0ef          	jal	ra,9c <print_str>
 298:	00001937          	lui	s2,0x1
 29c:	80090513          	addi	a0,s2,-2048 # 800 <buffer_number>
 2a0:	dfdff0ef          	jal	ra,9c <print_str>
 2a4:	c8440513          	addi	a0,s0,-892
 2a8:	df5ff0ef          	jal	ra,9c <print_str>
 2ac:	00001537          	lui	a0,0x1
 2b0:	c6850513          	addi	a0,a0,-920 # c68 <buffer_string+0x460>
 2b4:	de9ff0ef          	jal	ra,9c <print_str>
 2b8:	00000493          	addi	s1,zero,0
 2bc:	80898993          	addi	s3,s3,-2040
 2c0:	00400a13          	addi	s4,zero,4
 2c4:	013487b3          	add	a5,s1,s3
 2c8:	0007c503          	lbu	a0,0(a5)
 2cc:	00148493          	addi	s1,s1,1
 2d0:	dc1ff0ef          	jal	ra,90 <print_chr>
 2d4:	ff4498e3          	bne	s1,s4,2c4 <main+0x78>
 2d8:	c8440513          	addi	a0,s0,-892
 2dc:	dc1ff0ef          	jal	ra,9c <print_str>
 2e0:	00001537          	lui	a0,0x1
 2e4:	c8850513          	addi	a0,a0,-888 # c88 <buffer_string+0x480>
 2e8:	db5ff0ef          	jal	ra,9c <print_str>
 2ec:	00000493          	addi	s1,zero,0
 2f0:	80090913          	addi	s2,s2,-2048
 2f4:	00400993          	addi	s3,zero,4
 2f8:	012487b3          	add	a5,s1,s2
 2fc:	0007c503          	lbu	a0,0(a5)
 300:	00148493          	addi	s1,s1,1
 304:	d8dff0ef          	jal	ra,90 <print_chr>
 308:	ff3498e3          	bne	s1,s3,2f8 <main+0xac>
 30c:	c8440513          	addi	a0,s0,-892
 310:	d8dff0ef          	jal	ra,9c <print_str>
 314:	01c12083          	lw	ra,28(sp)
 318:	01812403          	lw	s0,24(sp)
 31c:	01412483          	lw	s1,20(sp)
 320:	01012903          	lw	s2,16(sp)
 324:	00c12983          	lw	s3,12(sp)
 328:	00812a03          	lw	s4,8(sp)
 32c:	00000513          	addi	a0,zero,0
 330:	02010113          	addi	sp,sp,32
 334:	00008067          	jalr	zero,0(ra)

00000338 <__mulsi3>:
 338:	862a                	c.mv	a2,a0
 33a:	4501                	c.li	a0,0
 33c:	0015f693          	andi	a3,a1,1
 340:	c291                	c.beqz	a3,344 <__mulsi3+0xc>
 342:	9532                	c.add	a0,a2
 344:	8185                	c.srli	a1,0x1
 346:	0606                	c.slli	a2,0x1
 348:	f9f5                	c.bnez	a1,33c <__mulsi3+0x4>
 34a:	8082                	c.jr	ra
	...
